; Function Attrs: nounwind uwtable
define ptr @l_Lean_Compiler_LCNF_inScope___rarg___lambda__1(ptr noundef %0, ptr noundef %1, ptr noundef %2) local_unnamed_addr #0 {
  %4 = getelementptr inbounds nuw i8, ptr %0, i64 8
  %5 = load ptr, ptr %4, align 8, !tbaa !9
  %6 = ptrtoint ptr %5 to i64
  %7 = and i64 %6, 1
  %.not = icmp eq i64 %7, 0
  br i1 %.not, label %8, label %lean_inc.exit18

8:                                                ; preds = %3
  %.val.i = load i32, ptr %5, align 4, !tbaa !4
  %9 = icmp sgt i32 %.val.i, 0
  br i1 %9, label %10, label %12, !prof !13

10:                                               ; preds = %8
  %11 = add nuw i32 %.val.i, 1
  store i32 %11, ptr %5, align 4, !tbaa !4
  br label %lean_inc.exit18

12:                                               ; preds = %8
  %.not.i25 = icmp eq i32 %.val.i, 0
  br i1 %.not.i25, label %lean_inc.exit18, label %13

13:                                               ; preds = %12
  tail call void @lean_inc_ref_cold(ptr noundef nonnull %5) #4
  br label %lean_inc.exit18

lean_inc.exit18:                                  ; preds = %13, %12, %10, %3
  %14 = ptrtoint ptr %0 to i64
  %15 = and i64 %14, 1
  %.not32 = icmp eq i64 %15, 0
  br i1 %.not32, label %16, label %lean_dec.exit20

16:                                               ; preds = %lean_inc.exit18
  %17 = load i32, ptr %0, align 4, !tbaa !4
  %18 = icmp sgt i32 %17, 1
  br i1 %18, label %19, label %21, !prof !13

19:                                               ; preds = %16
  %20 = add nsw i32 %17, -1
  store i32 %20, ptr %0, align 4, !tbaa !4
  br label %lean_dec.exit20

21:                                               ; preds = %16
  %.not.i = icmp eq i32 %17, 0
  br i1 %.not.i, label %lean_dec.exit20, label %22

22:                                               ; preds = %21
  tail call void @lean_dec_ref_cold(ptr noundef nonnull %0) #4
  br label %lean_dec.exit20

lean_dec.exit20:                                  ; preds = %22, %21, %19, %lean_inc.exit18
  %23 = getelementptr inbounds nuw i8, ptr %5, i64 16
  %24 = load ptr, ptr %23, align 8, !tbaa !9
  %25 = ptrtoint ptr %24 to i64
  %26 = and i64 %25, 1
  %.not33 = icmp eq i64 %26, 0
  br i1 %.not33, label %27, label %lean_inc.exit

27:                                               ; preds = %lean_dec.exit20
  %.val.i26 = load i32, ptr %24, align 4, !tbaa !4
  %28 = icmp sgt i32 %.val.i26, 0
  br i1 %28, label %29, label %31, !prof !13

29:                                               ; preds = %27
  %30 = add nuw i32 %.val.i26, 1
  store i32 %30, ptr %24, align 4, !tbaa !4
  br label %lean_inc.exit

31:                                               ; preds = %27
  %.not.i27 = icmp eq i32 %.val.i26, 0
  br i1 %.not.i27, label %lean_inc.exit, label %32

32:                                               ; preds = %31
  tail call void @lean_inc_ref_cold(ptr noundef nonnull %24) #4
  br label %lean_inc.exit

lean_inc.exit:                                    ; preds = %32, %31, %29, %lean_dec.exit20
  br i1 %.not, label %33, label %lean_dec.exit19

33:                                               ; preds = %lean_inc.exit
  %34 = load i32, ptr %5, align 4, !tbaa !4
  %35 = icmp sgt i32 %34, 1
  br i1 %35, label %36, label %38, !prof !13

36:                                               ; preds = %33
  %37 = add nsw i32 %34, -1
  store i32 %37, ptr %5, align 4, !tbaa !4
  br label %lean_dec.exit19

38:                                               ; preds = %33
  %.not.i21 = icmp eq i32 %34, 0
  br i1 %.not.i21, label %lean_dec.exit19, label %39

39:                                               ; preds = %38
  tail call void @lean_dec_ref_cold(ptr noundef nonnull %5) #4
  br label %lean_dec.exit19

lean_dec.exit19:                                  ; preds = %39, %38, %36, %lean_inc.exit
  %40 = tail call ptr @l_Lean_RBNode_findCore___at___private_Lean_Meta_FunInfo_0__Lean_Meta_getFunInfoAux___spec__2(ptr noundef %2, ptr noundef %1) #4
  %41 = ptrtoint ptr %40 to i64
  %42 = and i64 %41, 1
  %.not.i29 = icmp eq i64 %42, 0
  br i1 %.not.i29, label %lean_obj_tag.exit.thread, label %lean_obj_tag.exit

lean_obj_tag.exit:                                ; preds = %lean_dec.exit19
  %43 = and i64 %41, 8589934590
  %44 = icmp eq i64 %43, 0
  br i1 %44, label %53, label %lean_dec.exit

lean_obj_tag.exit.thread:                         ; preds = %lean_dec.exit19
  %45 = getelementptr i8, ptr %40, i64 4
  %.val.i30 = load i32, ptr %45, align 4
  %46 = icmp ult i32 %.val.i30, 16777216
  br i1 %46, label %53, label %.thread

.thread:                                          ; preds = %lean_obj_tag.exit.thread
  %47 = load i32, ptr %40, align 4, !tbaa !4
  %48 = icmp sgt i32 %47, 1
  br i1 %48, label %49, label %51, !prof !13

49:                                               ; preds = %.thread
  %50 = add nsw i32 %47, -1
  store i32 %50, ptr %40, align 4, !tbaa !4
  br label %lean_dec.exit

51:                                               ; preds = %.thread
  %.not.i23 = icmp eq i32 %47, 0
  br i1 %.not.i23, label %lean_dec.exit, label %52

52:                                               ; preds = %51
  tail call void @lean_dec_ref_cold(ptr noundef nonnull %40) #4
  br label %lean_dec.exit

lean_dec.exit:                                    ; preds = %lean_obj_tag.exit, %52, %51, %49
  br label %53

53:                                               ; preds = %lean_obj_tag.exit, %lean_obj_tag.exit.thread, %lean_dec.exit
  %.sink = phi ptr [ inttoptr (i64 3 to ptr), %lean_dec.exit ], [ inttoptr (i64 1 to ptr), %lean_obj_tag.exit.thread ], [ inttoptr (i64 1 to ptr), %lean_obj_tag.exit ]
  %54 = tail call ptr @lean_apply_2(ptr noundef %24, ptr noundef nonnull inttoptr (i64 1 to ptr), ptr noundef nonnull %.sink) #4
  ret ptr %54
}